target datalayout = "e-m:e-p270:32:32-p271:32:32-p272:64:64-i64:64-i128:128-f80:128-n8:16:32:64-S128"
target triple = "x86_64-pc-linux-gnu"

%struct.pm_string_t = type { ptr, i64, i32 }
%struct.pm_parser = type { i32, i32, i32, i32, i32, i32, i32, %struct.anon.5, ptr, ptr, %struct.pm_token_t, %struct.pm_token_t, ptr, ptr, %struct.pm_list_t, %struct.pm_list_t, %struct.pm_location_t, %struct.pm_list_t, %struct.pm_list_t, ptr, ptr, ptr, ptr, ptr, ptr, ptr, %struct.pm_string_t, %struct.pm_constant_pool_t, %struct.pm_newline_list_t, i16, %struct.pm_string_t, i32, ptr, ptr, i32, i8, i8, i8, i8, i8, i8, i8, i8, i8, i8, i8, i8, i8 }
%struct.anon.5 = type { ptr, [4 x %struct.pm_lex_mode], i64 }
%struct.pm_lex_mode = type { i32, %union.anon.6, ptr }
%union.anon.6 = type { %struct.anon.10 }
%struct.anon.10 = type { %struct.pm_heredoc_lex_mode_t, ptr, ptr, i8 }
%struct.pm_heredoc_lex_mode_t = type { ptr, i64, i32, i32 }
%struct.pm_token_t = type { i32, ptr, ptr }
%struct.pm_location_t = type { ptr, ptr }
%struct.pm_list_t = type { i64, ptr, ptr }
%struct.pm_constant_pool_t = type { ptr, ptr, i32, i32 }
%struct.pm_newline_list_t = type { ptr, i64, i64, ptr }
%struct.pm_comment = type { %struct.pm_list_node, %struct.pm_location_t, i32 }
%struct.pm_list_node = type { ptr }

@rb_cPrismLocation = hidden global i64 0, align 8
@rb_cPrismInlineComment = hidden global i64 0, align 8
@rb_cPrismEmbDocComment = hidden global i64 0, align 8

; Function Attrs: inlinehint nounwind sspstrong willreturn memory(none) uwtable
define internal i64 @RB_INT2FIX(i64 noundef %0) #11 {
  %2 = alloca i64, align 8
  %3 = alloca i64, align 8
  %4 = alloca i64, align 8
  %5 = alloca i64, align 8
  %6 = alloca i64, align 8
  %7 = alloca i64, align 8
  store i64 %0, ptr %2, align 8, !tbaa !7
  call void @llvm.lifetime.start.p0(i64 8, ptr %3) #24
  %8 = load i64, ptr %2, align 8, !tbaa !7
  store i64 %8, ptr %3, align 8, !tbaa !7
  call void @llvm.lifetime.start.p0(i64 8, ptr %4) #24
  %9 = load i64, ptr %3, align 8, !tbaa !7
  %10 = shl i64 %9, 1
  %11 = add i64 %10, 1
  store i64 %11, ptr %4, align 8, !tbaa !7
  call void @llvm.lifetime.start.p0(i64 8, ptr %5) #24
  %12 = load i64, ptr %4, align 8, !tbaa !7
  store i64 %12, ptr %5, align 8, !tbaa !7
  call void @llvm.lifetime.start.p0(i64 8, ptr %6) #24
  %13 = load i64, ptr %5, align 8, !tbaa !7
  store i64 %13, ptr %6, align 8, !tbaa !7
  call void @llvm.lifetime.start.p0(i64 8, ptr %7) #24
  %14 = load i64, ptr %6, align 8, !tbaa !7
  store i64 %14, ptr %7, align 8, !tbaa !7
  %15 = load i64, ptr %7, align 8, !tbaa !7
  call void @llvm.lifetime.end.p0(i64 8, ptr %7) #24
  call void @llvm.lifetime.end.p0(i64 8, ptr %6) #24
  call void @llvm.lifetime.end.p0(i64 8, ptr %5) #24
  call void @llvm.lifetime.end.p0(i64 8, ptr %4) #24
  call void @llvm.lifetime.end.p0(i64 8, ptr %3) #24
  ret i64 %15
}

; Function Attrs: inlinehint nounwind sspstrong uwtable
define internal i64 @rb_class_new_instance_freeze(i32 noundef %0, ptr noundef %1, i64 noundef %2, i1 noundef zeroext %3) #6 {
  %5 = alloca i32, align 4
  %6 = alloca ptr, align 8
  %7 = alloca i64, align 8
  %8 = alloca i8, align 1
  %9 = alloca i64, align 8
  store i32 %0, ptr %5, align 4, !tbaa !18
  store ptr %1, ptr %6, align 8, !tbaa !14
  store i64 %2, ptr %7, align 8, !tbaa !7
  %10 = zext i1 %3 to i8
  store i8 %10, ptr %8, align 1, !tbaa !52
  call void @llvm.lifetime.start.p0(i64 8, ptr %9) #24
  %11 = load i32, ptr %5, align 4, !tbaa !18
  %12 = load ptr, ptr %6, align 8, !tbaa !14
  %13 = load i64, ptr %7, align 8, !tbaa !7
  %14 = call i64 @rb_class_new_instance(i32 noundef %11, ptr noundef %12, i64 noundef %13)
  store i64 %14, ptr %9, align 8, !tbaa !7
  %15 = load i8, ptr %8, align 1, !tbaa !52, !range !45, !noundef !46
  %16 = trunc i8 %15 to i1
  br i1 %16, label %17, label %20

17:                                               ; preds = %4
  %18 = load i64, ptr %9, align 8, !tbaa !7
  %19 = call i64 @rb_obj_freeze(i64 noundef %18)
  br label %20

20:                                               ; preds = %17, %4
  %21 = load i64, ptr %9, align 8, !tbaa !7
  call void @llvm.lifetime.end.p0(i64 8, ptr %9) #24
  ret i64 %21
}

; Function Attrs: inlinehint nounwind sspstrong uwtable
define internal i64 @parser_location(ptr noundef %0, i64 noundef %1, i1 noundef zeroext %2, ptr noundef %3, i64 noundef %4) #6 {
  %6 = alloca ptr, align 8
  %7 = alloca i64, align 8
  %8 = alloca i8, align 1
  %9 = alloca ptr, align 8
  %10 = alloca i64, align 8
  %11 = alloca [3 x i64], align 16
  store ptr %0, ptr %6, align 8, !tbaa !91
  store i64 %1, ptr %7, align 8, !tbaa !7
  %12 = zext i1 %2 to i8
  store i8 %12, ptr %8, align 1, !tbaa !52
  store ptr %3, ptr %9, align 8, !tbaa !11
  store i64 %4, ptr %10, align 8, !tbaa !7
  call void @llvm.lifetime.start.p0(i64 24, ptr %11) #24
  %13 = load i64, ptr %7, align 8, !tbaa !7
  store i64 %13, ptr %11, align 8, !tbaa !7
  %14 = getelementptr inbounds i64, ptr %11, i64 1
  %15 = load ptr, ptr %9, align 8, !tbaa !11
  %16 = load ptr, ptr %6, align 8, !tbaa !91
  %17 = getelementptr inbounds nuw %struct.pm_parser, ptr %16, i32 0, i32 8
  %18 = load ptr, ptr %17, align 8, !tbaa !126
  %19 = ptrtoint ptr %15 to i64
  %20 = ptrtoint ptr %18 to i64
  %21 = sub i64 %19, %20
  %22 = call i64 @RB_INT2FIX(i64 noundef %21) #25
  store i64 %22, ptr %14, align 8, !tbaa !7
  %23 = getelementptr inbounds i64, ptr %11, i64 2
  %24 = load i64, ptr %10, align 8, !tbaa !7
  %25 = call i64 @RB_INT2FIX(i64 noundef %24) #25
  store i64 %25, ptr %23, align 8, !tbaa !7
  %26 = getelementptr inbounds [3 x i64], ptr %11, i64 0, i64 0
  %27 = load i64, ptr @rb_cPrismLocation, align 8, !tbaa !7
  %28 = load i8, ptr %8, align 1, !tbaa !52, !range !45, !noundef !46
  %29 = trunc i8 %28 to i1
  %30 = call i64 @rb_class_new_instance_freeze(i32 noundef 3, ptr noundef %26, i64 noundef %27, i1 noundef zeroext %29)
  call void @llvm.lifetime.end.p0(i64 24, ptr %11) #24
  ret i64 %30
}

; Function Attrs: inlinehint nounwind sspstrong uwtable
define internal i64 @parser_comment(ptr noundef %0, i64 noundef %1, i1 noundef zeroext %2, ptr noundef %3) #6 {
  %5 = alloca ptr, align 8
  %6 = alloca i64, align 8
  %7 = alloca i8, align 1
  %8 = alloca ptr, align 8
  %9 = alloca [1 x i64], align 8
  %10 = alloca i64, align 8
  store ptr %0, ptr %5, align 8, !tbaa !91
  store i64 %1, ptr %6, align 8, !tbaa !7
  %11 = zext i1 %2 to i8
  store i8 %11, ptr %7, align 1, !tbaa !52
  store ptr %3, ptr %8, align 8, !tbaa !97
  call void @llvm.lifetime.start.p0(i64 8, ptr %9) #24
  %12 = load ptr, ptr %5, align 8, !tbaa !91
  %13 = load i64, ptr %6, align 8, !tbaa !7
  %14 = load i8, ptr %7, align 1, !tbaa !52, !range !45, !noundef !46
  %15 = trunc i8 %14 to i1
  %16 = load ptr, ptr %8, align 8, !tbaa !97
  %17 = getelementptr inbounds nuw %struct.pm_comment, ptr %16, i32 0, i32 1
  %18 = getelementptr inbounds nuw %struct.pm_location_t, ptr %17, i32 0, i32 0
  %19 = load ptr, ptr %18, align 8, !tbaa !123
  %20 = load ptr, ptr %8, align 8, !tbaa !97
  %21 = getelementptr inbounds nuw %struct.pm_comment, ptr %20, i32 0, i32 1
  %22 = getelementptr inbounds nuw %struct.pm_location_t, ptr %21, i32 0, i32 1
  %23 = load ptr, ptr %22, align 8, !tbaa !124
  %24 = load ptr, ptr %8, align 8, !tbaa !97
  %25 = getelementptr inbounds nuw %struct.pm_comment, ptr %24, i32 0, i32 1
  %26 = getelementptr inbounds nuw %struct.pm_location_t, ptr %25, i32 0, i32 0
  %27 = load ptr, ptr %26, align 8, !tbaa !123
  %28 = ptrtoint ptr %23 to i64
  %29 = ptrtoint ptr %27 to i64
  %30 = sub i64 %28, %29
  %31 = call i64 @parser_location(ptr noundef %12, i64 noundef %13, i1 noundef zeroext %15, ptr noundef %19, i64 noundef %30)
  store i64 %31, ptr %9, align 8, !tbaa !7
  call void @llvm.lifetime.start.p0(i64 8, ptr %10) #24
  %32 = load ptr, ptr %8, align 8, !tbaa !97
  %33 = getelementptr inbounds nuw %struct.pm_comment, ptr %32, i32 0, i32 2
  %34 = load i32, ptr %33, align 8, !tbaa !125
  %35 = icmp eq i32 %34, 1
  br i1 %35, label %36, label %38

36:                                               ; preds = %4
  %37 = load i64, ptr @rb_cPrismEmbDocComment, align 8, !tbaa !7
  br label %40

38:                                               ; preds = %4
  %39 = load i64, ptr @rb_cPrismInlineComment, align 8, !tbaa !7
  br label %40

40:                                               ; preds = %38, %36
  %41 = phi i64 [ %37, %36 ], [ %39, %38 ]
  store i64 %41, ptr %10, align 8, !tbaa !7
  %42 = getelementptr inbounds [1 x i64], ptr %9, i64 0, i64 0
  %43 = load i64, ptr %10, align 8, !tbaa !7
  %44 = load i8, ptr %7, align 1, !tbaa !52, !range !45, !noundef !46
  %45 = trunc i8 %44 to i1
  %46 = call i64 @rb_class_new_instance_freeze(i32 noundef 1, ptr noundef %42, i64 noundef %43, i1 noundef zeroext %45)
  call void @llvm.lifetime.end.p0(i64 8, ptr %10) #24
  call void @llvm.lifetime.end.p0(i64 8, ptr %9) #24
  ret i64 %46
}

; Function Attrs: nounwind sspstrong uwtable
define internal i64 @parser_comments(ptr noundef %0, i64 noundef %1, i1 noundef zeroext %2) #0 {
  %4 = alloca ptr, align 8
  %5 = alloca i64, align 8
  %6 = alloca i8, align 1
  %7 = alloca i64, align 8
  %8 = alloca ptr, align 8
  %9 = alloca i64, align 8
  store ptr %0, ptr %4, align 8, !tbaa !91
  store i64 %1, ptr %5, align 8, !tbaa !7
  %10 = zext i1 %2 to i8
  store i8 %10, ptr %6, align 1, !tbaa !52
  call void @llvm.lifetime.start.p0(i64 8, ptr %7) #24
  %11 = load ptr, ptr %4, align 8, !tbaa !91
  %12 = getelementptr inbounds nuw %struct.pm_parser, ptr %11, i32 0, i32 14
  %13 = getelementptr inbounds nuw %struct.pm_list_t, ptr %12, i32 0, i32 0
  %14 = load i64, ptr %13, align 8, !tbaa !95
  %15 = call i64 @rb_ary_new_capa(i64 noundef %14)
  store i64 %15, ptr %7, align 8, !tbaa !7
  call void @llvm.lifetime.start.p0(i64 8, ptr %8) #24
  %16 = load ptr, ptr %4, align 8, !tbaa !91
  %17 = getelementptr inbounds nuw %struct.pm_parser, ptr %16, i32 0, i32 14
  %18 = getelementptr inbounds nuw %struct.pm_list_t, ptr %17, i32 0, i32 1
  %19 = load ptr, ptr %18, align 8, !tbaa !96
  store ptr %19, ptr %8, align 8, !tbaa !97
  br label %20

20:                                               ; preds = %34, %3
  %21 = load ptr, ptr %8, align 8, !tbaa !97
  %22 = icmp ne ptr %21, null
  br i1 %22, label %24, label %23

23:                                               ; preds = %20
  call void @llvm.lifetime.end.p0(i64 8, ptr %8) #24
  br label %39

24:                                               ; preds = %20
  call void @llvm.lifetime.start.p0(i64 8, ptr %9) #24
  %25 = load ptr, ptr %4, align 8, !tbaa !91
  %26 = load i64, ptr %5, align 8, !tbaa !7
  %27 = load i8, ptr %6, align 1, !tbaa !52, !range !45, !noundef !46
  %28 = trunc i8 %27 to i1
  %29 = load ptr, ptr %8, align 8, !tbaa !97
  %30 = call i64 @parser_comment(ptr noundef %25, i64 noundef %26, i1 noundef zeroext %28, ptr noundef %29)
  store i64 %30, ptr %9, align 8, !tbaa !7
  %31 = load i64, ptr %7, align 8, !tbaa !7
  %32 = load i64, ptr %9, align 8, !tbaa !7
  %33 = call i64 @rb_ary_push(i64 noundef %31, i64 noundef %32)
  call void @llvm.lifetime.end.p0(i64 8, ptr %9) #24
  br label %34

34:                                               ; preds = %24
  %35 = load ptr, ptr %8, align 8, !tbaa !97
  %36 = getelementptr inbounds nuw %struct.pm_comment, ptr %35, i32 0, i32 0
  %37 = getelementptr inbounds nuw %struct.pm_list_node, ptr %36, i32 0, i32 0
  %38 = load ptr, ptr %37, align 8, !tbaa !99
  store ptr %38, ptr %8, align 8, !tbaa !97
  br label %20, !llvm.loop !102

39:                                               ; preds = %23
  %40 = load i8, ptr %6, align 1, !tbaa !52, !range !45, !noundef !46
  %41 = trunc i8 %40 to i1
  br i1 %41, label %42, label %45

42:                                               ; preds = %39
  %43 = load i64, ptr %7, align 8, !tbaa !7
  %44 = call i64 @rb_obj_freeze(i64 noundef %43)
  br label %45

45:                                               ; preds = %42, %39
  %46 = load i64, ptr %7, align 8, !tbaa !7
  call void @llvm.lifetime.end.p0(i64 8, ptr %7) #24
  ret i64 %46
}