; Function Attrs: nounwind sspstrong uwtable
define internal fastcc i64 @parser_comments(ptr noundef nonnull readonly captures(none) %0, i64 noundef %1, i1 noundef zeroext %2) unnamed_addr #0 {
  %4 = alloca [3 x i64], align 16
  %5 = alloca [1 x i64], align 8
  %6 = getelementptr inbounds nuw i8, ptr %0, i64 384
  %7 = load i64, ptr %6, align 8, !tbaa !98
  %8 = tail call i64 @rb_ary_new_capa(i64 noundef %7) #9
  %9 = getelementptr inbounds nuw i8, ptr %0, i64 392
  %.012 = load ptr, ptr %9, align 8, !tbaa !78
  %.not13 = icmp eq ptr %.012, null
  br i1 %.not13, label %._crit_edge, label %.lr.ph

.lr.ph:                                           ; preds = %3
  %10 = getelementptr i8, ptr %0, i64 304
  %11 = getelementptr inbounds nuw i8, ptr %4, i64 8
  %12 = getelementptr inbounds nuw i8, ptr %4, i64 16
  br i1 %2, label %parser_location.exit.i.us, label %parser_location.exit.i

parser_location.exit.i.us:                        ; preds = %.lr.ph, %parser_location.exit.i.us
  %.014.us = phi ptr [ %.0.us, %parser_location.exit.i.us ], [ %.012, %.lr.ph ]
  %.val.us = load ptr, ptr %10, align 8, !tbaa !83
  call void @llvm.lifetime.start.p0(i64 8, ptr nonnull %5) #9
  %13 = getelementptr inbounds nuw i8, ptr %.014.us, i64 8
  %14 = load ptr, ptr %13, align 8, !tbaa !99
  %15 = getelementptr inbounds nuw i8, ptr %.014.us, i64 16
  %16 = load ptr, ptr %15, align 8, !tbaa !101
  %17 = ptrtoint ptr %16 to i64
  %18 = ptrtoint ptr %14 to i64
  %19 = sub i64 %17, %18
  call void @llvm.lifetime.start.p0(i64 24, ptr nonnull %4) #9
  store i64 %1, ptr %4, align 16, !tbaa !7
  %20 = ptrtoint ptr %.val.us to i64
  %21 = sub i64 %18, %20
  %22 = shl i64 %21, 1
  %23 = or disjoint i64 %22, 1
  store i64 %23, ptr %11, align 8, !tbaa !7
  %24 = shl i64 %19, 1
  %25 = or disjoint i64 %24, 1
  store i64 %25, ptr %12, align 16, !tbaa !7
  %26 = load i64, ptr @rb_cPrismLocation, align 8, !tbaa !7
  %27 = call i64 @rb_class_new_instance(i32 noundef 3, ptr noundef nonnull %4, i64 noundef %26) #9
  %28 = call i64 @rb_obj_freeze(i64 noundef %27) #9
  call void @llvm.lifetime.end.p0(i64 24, ptr nonnull %4) #9
  store i64 %27, ptr %5, align 8, !tbaa !7
  %29 = getelementptr inbounds nuw i8, ptr %.014.us, i64 24
  %30 = load i32, ptr %29, align 8, !tbaa !102
  %31 = icmp eq i32 %30, 1
  %32 = load i64, ptr @rb_cPrismEmbDocComment, align 8
  %33 = load i64, ptr @rb_cPrismInlineComment, align 8
  %34 = select i1 %31, i64 %32, i64 %33
  %35 = call i64 @rb_class_new_instance(i32 noundef 1, ptr noundef nonnull %5, i64 noundef %34) #9
  %36 = call i64 @rb_obj_freeze(i64 noundef %35) #9
  call void @llvm.lifetime.end.p0(i64 8, ptr nonnull %5) #9
  %37 = call i64 @rb_ary_push(i64 noundef %8, i64 noundef %35) #9
  %.0.us = load ptr, ptr %.014.us, align 8, !tbaa !78
  %.not.us = icmp eq ptr %.0.us, null
  br i1 %.not.us, label %._crit_edge, label %parser_location.exit.i.us, !llvm.loop !103

._crit_edge:                                      ; preds = %parser_location.exit.i, %parser_location.exit.i.us, %3
  br i1 %2, label %61, label %63

parser_location.exit.i:                           ; preds = %.lr.ph, %parser_location.exit.i
  %.014 = phi ptr [ %.0, %parser_location.exit.i ], [ %.012, %.lr.ph ]
  %.val = load ptr, ptr %10, align 8, !tbaa !83
  call void @llvm.lifetime.start.p0(i64 8, ptr nonnull %5) #9
  %38 = getelementptr inbounds nuw i8, ptr %.014, i64 8
  %39 = load ptr, ptr %38, align 8, !tbaa !99
  %40 = getelementptr inbounds nuw i8, ptr %.014, i64 16
  %41 = load ptr, ptr %40, align 8, !tbaa !101
  %42 = ptrtoint ptr %41 to i64
  %43 = ptrtoint ptr %39 to i64
  %44 = sub i64 %42, %43
  call void @llvm.lifetime.start.p0(i64 24, ptr nonnull %4) #9
  store i64 %1, ptr %4, align 16, !tbaa !7
  %45 = ptrtoint ptr %.val to i64
  %46 = sub i64 %43, %45
  %47 = shl i64 %46, 1
  %48 = or disjoint i64 %47, 1
  store i64 %48, ptr %11, align 8, !tbaa !7
  %49 = shl i64 %44, 1
  %50 = or disjoint i64 %49, 1
  store i64 %50, ptr %12, align 16, !tbaa !7
  %51 = load i64, ptr @rb_cPrismLocation, align 8, !tbaa !7
  %52 = call i64 @rb_class_new_instance(i32 noundef 3, ptr noundef nonnull %4, i64 noundef %51) #9
  call void @llvm.lifetime.end.p0(i64 24, ptr nonnull %4) #9
  store i64 %52, ptr %5, align 8, !tbaa !7
  %53 = getelementptr inbounds nuw i8, ptr %.014, i64 24
  %54 = load i32, ptr %53, align 8, !tbaa !102
  %55 = icmp eq i32 %54, 1
  %56 = load i64, ptr @rb_cPrismEmbDocComment, align 8
  %57 = load i64, ptr @rb_cPrismInlineComment, align 8
  %58 = select i1 %55, i64 %56, i64 %57
  %59 = call i64 @rb_class_new_instance(i32 noundef 1, ptr noundef nonnull %5, i64 noundef %58) #9
  call void @llvm.lifetime.end.p0(i64 8, ptr nonnull %5) #9
  %60 = call i64 @rb_ary_push(i64 noundef %8, i64 noundef %59) #9
  %.0 = load ptr, ptr %.014, align 8, !tbaa !78
  %.not = icmp eq ptr %.0, null
  br i1 %.not, label %._crit_edge, label %parser_location.exit.i, !llvm.loop !103

61:                                               ; preds = %._crit_edge
  %62 = call i64 @rb_obj_freeze(i64 noundef %8) #9
  br label %63

63:                                               ; preds = %61, %._crit_edge
  ret i64 %8
}